; ModuleID = '49/1067.c'
source_filename = "49/1067.c"
target datalayout = "e-m:e-p270:32:32-p271:32:32-p272:64:64-i64:64-f80:128-n8:16:32:64-S128"
target triple = "x86_64-pc-linux-gnu"

@.str = private unnamed_addr constant [3 x i8] c"%c\00", align 1
@.str.1 = private unnamed_addr constant [2 x i8] c"\0A\00", align 1

; Function Attrs: noinline nounwind uwtable
define dso_local i32 @main() #0 {
  %1 = alloca i32, align 4
  %2 = alloca [500 x i8], align 16
  %3 = alloca i32, align 4
  %4 = alloca i32, align 4
  %5 = alloca i32, align 4
  %6 = alloca i32, align 4
  %7 = alloca i32, align 4
  %8 = alloca i32, align 4
  %9 = alloca i32, align 4
  %10 = alloca i32, align 4
  %11 = alloca [500 x i8], align 16
  store i32 0, i32* %1, align 4
  store i32 0, i32* %10, align 4
  %12 = getelementptr inbounds [500 x i8], [500 x i8]* %2, i64 0, i64 0
  %13 = call i32 (i8*, ...) bitcast (i32 (...)* @gets to i32 (i8*, ...)*)(i8* %12)
  %14 = getelementptr inbounds [500 x i8], [500 x i8]* %11, i64 0, i64 0
  %15 = getelementptr inbounds [500 x i8], [500 x i8]* %2, i64 0, i64 0
  %16 = call i8* @strcpy(i8* %14, i8* %15) #3
  store i32 0, i32* %5, align 4
  br label %17

17:                                               ; preds = %26, %0
  %18 = load i32, i32* %5, align 4
  %19 = sext i32 %18 to i64
  %20 = getelementptr inbounds [500 x i8], [500 x i8]* %2, i64 0, i64 %19
  %21 = load i8, i8* %20, align 1
  %22 = sext i8 %21 to i32
  %23 = icmp eq i32 %22, 0
  br i1 %23, label %24, label %25

24:                                               ; preds = %17
  br label %29

25:                                               ; preds = %17
  br label %26

26:                                               ; preds = %25
  %27 = load i32, i32* %5, align 4
  %28 = add nsw i32 %27, 1
  store i32 %28, i32* %5, align 4
  br label %17

29:                                               ; preds = %24
  store i32 1, i32* %7, align 4
  br label %30

30:                                               ; preds = %135, %29
  %31 = load i32, i32* %7, align 4
  %32 = load i32, i32* %5, align 4
  %33 = icmp slt i32 %31, %32
  br i1 %33, label %34, label %138

34:                                               ; preds = %30
  store i32 0, i32* %6, align 4
  br label %35

35:                                               ; preds = %131, %34
  %36 = load i32, i32* %7, align 4
  %37 = load i32, i32* %6, align 4
  %38 = add nsw i32 %36, %37
  %39 = sext i32 %38 to i64
  %40 = getelementptr inbounds [500 x i8], [500 x i8]* %2, i64 0, i64 %39
  %41 = load i8, i8* %40, align 1
  %42 = sext i8 %41 to i32
  %43 = icmp ne i32 %42, 0
  br i1 %43, label %44, label %134

44:                                               ; preds = %35
  store i32 0, i32* %10, align 4
  %45 = getelementptr inbounds [500 x i8], [500 x i8]* %2, i64 0, i64 0
  %46 = getelementptr inbounds [500 x i8], [500 x i8]* %11, i64 0, i64 0
  %47 = call i8* @strcpy(i8* %45, i8* %46) #3
  %48 = load i32, i32* %6, align 4
  %49 = sext i32 %48 to i64
  %50 = getelementptr inbounds [500 x i8], [500 x i8]* %2, i64 0, i64 %49
  %51 = load i8, i8* %50, align 1
  %52 = sext i8 %51 to i32
  store i32 %52, i32* %3, align 4
  %53 = load i32, i32* %7, align 4
  %54 = load i32, i32* %6, align 4
  %55 = add nsw i32 %53, %54
  %56 = sext i32 %55 to i64
  %57 = getelementptr inbounds [500 x i8], [500 x i8]* %2, i64 0, i64 %56
  %58 = load i8, i8* %57, align 1
  %59 = sext i8 %58 to i32
  store i32 %59, i32* %4, align 4
  %60 = load i32, i32* %3, align 4
  %61 = load i32, i32* %4, align 4
  %62 = icmp ne i32 %60, %61
  br i1 %62, label %63, label %64

63:                                               ; preds = %44
  store i32 1, i32* %10, align 4
  br label %107

64:                                               ; preds = %44
  store i32 1, i32* %8, align 4
  br label %65

65:                                               ; preds = %103, %64
  %66 = load i32, i32* %3, align 4
  %67 = load i32, i32* %4, align 4
  %68 = icmp eq i32 %66, %67
  br i1 %68, label %69, label %106

69:                                               ; preds = %65
  %70 = load i32, i32* %6, align 4
  %71 = load i32, i32* %8, align 4
  %72 = add nsw i32 %70, %71
  %73 = sext i32 %72 to i64
  %74 = getelementptr inbounds [500 x i8], [500 x i8]* %2, i64 0, i64 %73
  %75 = load i8, i8* %74, align 1
  %76 = sext i8 %75 to i32
  store i32 %76, i32* %3, align 4
  %77 = load i32, i32* %7, align 4
  %78 = load i32, i32* %6, align 4
  %79 = add nsw i32 %77, %78
  %80 = load i32, i32* %8, align 4
  %81 = sub nsw i32 %79, %80
  %82 = sext i32 %81 to i64
  %83 = getelementptr inbounds [500 x i8], [500 x i8]* %2, i64 0, i64 %82
  %84 = load i8, i8* %83, align 1
  %85 = sext i8 %84 to i32
  store i32 %85, i32* %4, align 4
  %86 = load i32, i32* %3, align 4
  %87 = load i32, i32* %4, align 4
  %88 = icmp ne i32 %86, %87
  br i1 %88, label %89, label %90

89:                                               ; preds = %69
  store i32 1, i32* %10, align 4
  br label %106

90:                                               ; preds = %69
  %91 = load i32, i32* %6, align 4
  %92 = load i32, i32* %8, align 4
  %93 = add nsw i32 %91, %92
  %94 = load i32, i32* %7, align 4
  %95 = load i32, i32* %6, align 4
  %96 = add nsw i32 %94, %95
  %97 = load i32, i32* %8, align 4
  %98 = sub nsw i32 %96, %97
  %99 = icmp sge i32 %93, %98
  br i1 %99, label %100, label %101

100:                                              ; preds = %90
  br label %106

101:                                              ; preds = %90
  br label %102

102:                                              ; preds = %101
  br label %103

103:                                              ; preds = %102
  %104 = load i32, i32* %8, align 4
  %105 = add nsw i32 %104, 1
  store i32 %105, i32* %8, align 4
  br label %65

106:                                              ; preds = %100, %89, %65
  br label %107

107:                                              ; preds = %106, %63
  %108 = load i32, i32* %10, align 4
  %109 = icmp eq i32 %108, 0
  br i1 %109, label %110, label %130

110:                                              ; preds = %107
  %111 = load i32, i32* %6, align 4
  store i32 %111, i32* %9, align 4
  br label %112

112:                                              ; preds = %125, %110
  %113 = load i32, i32* %9, align 4
  %114 = load i32, i32* %7, align 4
  %115 = load i32, i32* %6, align 4
  %116 = add nsw i32 %114, %115
  %117 = icmp sle i32 %113, %116
  br i1 %117, label %118, label %128

118:                                              ; preds = %112
  %119 = load i32, i32* %9, align 4
  %120 = sext i32 %119 to i64
  %121 = getelementptr inbounds [500 x i8], [500 x i8]* %2, i64 0, i64 %120
  %122 = load i8, i8* %121, align 1
  %123 = sext i8 %122 to i32
  %124 = call i32 (i8*, ...) @printf(i8* getelementptr inbounds ([3 x i8], [3 x i8]* @.str, i64 0, i64 0), i32 %123)
  br label %125

125:                                              ; preds = %118
  %126 = load i32, i32* %9, align 4
  %127 = add nsw i32 %126, 1
  store i32 %127, i32* %9, align 4
  br label %112

128:                                              ; preds = %112
  %129 = call i32 (i8*, ...) @printf(i8* getelementptr inbounds ([2 x i8], [2 x i8]* @.str.1, i64 0, i64 0))
  br label %130

130:                                              ; preds = %128, %107
  br label %131

131:                                              ; preds = %130
  %132 = load i32, i32* %6, align 4
  %133 = add nsw i32 %132, 1
  store i32 %133, i32* %6, align 4
  br label %35

134:                                              ; preds = %35
  br label %135

135:                                              ; preds = %134
  %136 = load i32, i32* %7, align 4
  %137 = add nsw i32 %136, 1
  store i32 %137, i32* %7, align 4
  br label %30

138:                                              ; preds = %30
  ret i32 0
}

declare dso_local i32 @gets(...) #1

; Function Attrs: nounwind
declare dso_local i8* @strcpy(i8*, i8*) #2

declare dso_local i32 @printf(i8*, ...) #1


!llvm.module.flags = !{!0}
!llvm.ident = !{!1}

!0 = !{i32 1, !"wchar_size", i32 4}
!1 = !{!"clang version 10.0.0-4ubuntu1 "}
